target datalayout = "e-m:e-p270:32:32-p271:32:32-p272:64:64-i64:64-i128:128-f80:128-n8:16:32:64-S128"
target triple = "x86_64-pc-linux-gnu"

%struct.jpeg_decompress_struct = type { ptr, ptr, ptr, ptr, i32, i32, ptr, i32, i32, i32, i32, i32, i32, i32, double, i32, i32, i32, i32, i32, i32, i32, i32, i32, i32, i32, i32, i32, i32, i32, i32, i32, i32, ptr, i32, i32, i32, i32, i32, ptr, [4 x ptr], [4 x ptr], [4 x ptr], i32, ptr, i32, i32, [16 x i8], [16 x i8], [16 x i8], i32, i32, i8, i8, i8, i16, i16, i32, i8, i32, ptr, i32, i32, i32, i32, ptr, i32, [4 x ptr], i32, i32, i32, [10 x i32], i32, i32, i32, i32, i32, ptr, ptr, ptr, ptr, ptr, ptr, ptr, ptr, ptr, ptr, ptr }
%struct.my_main_controller = type { %struct.jpeg_d_main_controller, [10 x ptr], i32, i32, [2 x ptr], i32, i32, i32, i32 }
%struct.jpeg_d_main_controller = type { ptr, ptr }
%struct.jpeg_error_mgr = type { ptr, ptr, ptr, ptr, ptr, i32, %union.anon, i32, i64, ptr, i32, ptr, i32, i32 }
%union.anon = type { [8 x i32], [48 x i8] }
%struct.jpeg_upsampler = type { ptr, ptr, i32 }
%struct.jpeg_component_info = type { i32, i32, i32, i32, i32, i32, i32, i32, i32, i32, i32, i32, i32, i32, i32, i32, i32, i32, i32, ptr, ptr }

; Function Attrs: nounwind uwtable
define internal void @make_funny_pointers(ptr noundef %0) #0 {
  %2 = alloca ptr, align 8
  %3 = alloca ptr, align 8
  %4 = alloca i32, align 4
  %5 = alloca i32, align 4
  %6 = alloca i32, align 4
  %7 = alloca i32, align 4
  %8 = alloca ptr, align 8
  %9 = alloca ptr, align 8
  %10 = alloca ptr, align 8
  %11 = alloca ptr, align 8
  store ptr %0, ptr %2, align 8
  %12 = load ptr, ptr %2, align 8
  %13 = getelementptr inbounds %struct.jpeg_decompress_struct, ptr %12, i32 0, i32 78
  %14 = load ptr, ptr %13, align 8
  store ptr %14, ptr %3, align 8
  %15 = load ptr, ptr %2, align 8
  %16 = getelementptr inbounds %struct.jpeg_decompress_struct, ptr %15, i32 0, i32 63
  %17 = load i32, ptr %16, align 8
  store i32 %17, ptr %7, align 4
  store i32 0, ptr %4, align 4
  %18 = load ptr, ptr %2, align 8
  %19 = getelementptr inbounds %struct.jpeg_decompress_struct, ptr %18, i32 0, i32 44
  %20 = load ptr, ptr %19, align 8
  store ptr %20, ptr %8, align 8
  br label %21

21:                                               ; preds = %150, %1
  %22 = load i32, ptr %4, align 4
  %23 = load ptr, ptr %2, align 8
  %24 = getelementptr inbounds %struct.jpeg_decompress_struct, ptr %23, i32 0, i32 9
  %25 = load i32, ptr %24, align 8
  %26 = icmp slt i32 %22, %25
  br i1 %26, label %27, label %155

27:                                               ; preds = %21
  %28 = load ptr, ptr %8, align 8
  %29 = getelementptr inbounds %struct.jpeg_component_info, ptr %28, i32 0, i32 3
  %30 = load i32, ptr %29, align 4
  %31 = load ptr, ptr %8, align 8
  %32 = getelementptr inbounds %struct.jpeg_component_info, ptr %31, i32 0, i32 9
  %33 = load i32, ptr %32, align 4
  %34 = mul nsw i32 %30, %33
  %35 = load ptr, ptr %2, align 8
  %36 = getelementptr inbounds %struct.jpeg_decompress_struct, ptr %35, i32 0, i32 63
  %37 = load i32, ptr %36, align 8
  %38 = sdiv i32 %34, %37
  store i32 %38, ptr %6, align 4
  %39 = load ptr, ptr %3, align 8
  %40 = getelementptr inbounds %struct.my_main_controller, ptr %39, i32 0, i32 4
  %41 = getelementptr inbounds [2 x ptr], ptr %40, i64 0, i64 0
  %42 = load ptr, ptr %41, align 8
  %43 = load i32, ptr %4, align 4
  %44 = sext i32 %43 to i64
  %45 = getelementptr inbounds ptr, ptr %42, i64 %44
  %46 = load ptr, ptr %45, align 8
  store ptr %46, ptr %10, align 8
  %47 = load ptr, ptr %3, align 8
  %48 = getelementptr inbounds %struct.my_main_controller, ptr %47, i32 0, i32 4
  %49 = getelementptr inbounds [2 x ptr], ptr %48, i64 0, i64 1
  %50 = load ptr, ptr %49, align 8
  %51 = load i32, ptr %4, align 4
  %52 = sext i32 %51 to i64
  %53 = getelementptr inbounds ptr, ptr %50, i64 %52
  %54 = load ptr, ptr %53, align 8
  store ptr %54, ptr %11, align 8
  %55 = load ptr, ptr %3, align 8
  %56 = getelementptr inbounds %struct.my_main_controller, ptr %55, i32 0, i32 1
  %57 = load i32, ptr %4, align 4
  %58 = sext i32 %57 to i64
  %59 = getelementptr inbounds [10 x ptr], ptr %56, i64 0, i64 %58
  %60 = load ptr, ptr %59, align 8
  store ptr %60, ptr %9, align 8
  store i32 0, ptr %5, align 4
  br label %61

61:                                               ; preds = %82, %27
  %62 = load i32, ptr %5, align 4
  %63 = load i32, ptr %6, align 4
  %64 = load i32, ptr %7, align 4
  %65 = add nsw i32 %64, 2
  %66 = mul nsw i32 %63, %65
  %67 = icmp slt i32 %62, %66
  br i1 %67, label %68, label %85

68:                                               ; preds = %61
  %69 = load ptr, ptr %9, align 8
  %70 = load i32, ptr %5, align 4
  %71 = sext i32 %70 to i64
  %72 = getelementptr inbounds ptr, ptr %69, i64 %71
  %73 = load ptr, ptr %72, align 8
  %74 = load ptr, ptr %11, align 8
  %75 = load i32, ptr %5, align 4
  %76 = sext i32 %75 to i64
  %77 = getelementptr inbounds ptr, ptr %74, i64 %76
  store ptr %73, ptr %77, align 8
  %78 = load ptr, ptr %10, align 8
  %79 = load i32, ptr %5, align 4
  %80 = sext i32 %79 to i64
  %81 = getelementptr inbounds ptr, ptr %78, i64 %80
  store ptr %73, ptr %81, align 8
  br label %82

82:                                               ; preds = %68
  %83 = load i32, ptr %5, align 4
  %84 = add nsw i32 %83, 1
  store i32 %84, ptr %5, align 4
  br label %61, !llvm.loop !9

85:                                               ; preds = %61
  store i32 0, ptr %5, align 4
  br label %86

86:                                               ; preds = %128, %85
  %87 = load i32, ptr %5, align 4
  %88 = load i32, ptr %6, align 4
  %89 = mul nsw i32 %88, 2
  %90 = icmp slt i32 %87, %89
  br i1 %90, label %91, label %131

91:                                               ; preds = %86
  %92 = load ptr, ptr %9, align 8
  %93 = load i32, ptr %6, align 4
  %94 = load i32, ptr %7, align 4
  %95 = mul nsw i32 %93, %94
  %96 = load i32, ptr %5, align 4
  %97 = add nsw i32 %95, %96
  %98 = sext i32 %97 to i64
  %99 = getelementptr inbounds ptr, ptr %92, i64 %98
  %100 = load ptr, ptr %99, align 8
  %101 = load ptr, ptr %11, align 8
  %102 = load i32, ptr %6, align 4
  %103 = load i32, ptr %7, align 4
  %104 = sub nsw i32 %103, 2
  %105 = mul nsw i32 %102, %104
  %106 = load i32, ptr %5, align 4
  %107 = add nsw i32 %105, %106
  %108 = sext i32 %107 to i64
  %109 = getelementptr inbounds ptr, ptr %101, i64 %108
  store ptr %100, ptr %109, align 8
  %110 = load ptr, ptr %9, align 8
  %111 = load i32, ptr %6, align 4
  %112 = load i32, ptr %7, align 4
  %113 = sub nsw i32 %112, 2
  %114 = mul nsw i32 %111, %113
  %115 = load i32, ptr %5, align 4
  %116 = add nsw i32 %114, %115
  %117 = sext i32 %116 to i64
  %118 = getelementptr inbounds ptr, ptr %110, i64 %117
  %119 = load ptr, ptr %118, align 8
  %120 = load ptr, ptr %11, align 8
  %121 = load i32, ptr %6, align 4
  %122 = load i32, ptr %7, align 4
  %123 = mul nsw i32 %121, %122
  %124 = load i32, ptr %5, align 4
  %125 = add nsw i32 %123, %124
  %126 = sext i32 %125 to i64
  %127 = getelementptr inbounds ptr, ptr %120, i64 %126
  store ptr %119, ptr %127, align 8
  br label %128

128:                                              ; preds = %91
  %129 = load i32, ptr %5, align 4
  %130 = add nsw i32 %129, 1
  store i32 %130, ptr %5, align 4
  br label %86, !llvm.loop !10

131:                                              ; preds = %86
  store i32 0, ptr %5, align 4
  br label %132

132:                                              ; preds = %146, %131
  %133 = load i32, ptr %5, align 4
  %134 = load i32, ptr %6, align 4
  %135 = icmp slt i32 %133, %134
  br i1 %135, label %136, label %149

136:                                              ; preds = %132
  %137 = load ptr, ptr %10, align 8
  %138 = getelementptr inbounds ptr, ptr %137, i64 0
  %139 = load ptr, ptr %138, align 8
  %140 = load ptr, ptr %10, align 8
  %141 = load i32, ptr %5, align 4
  %142 = load i32, ptr %6, align 4
  %143 = sub nsw i32 %141, %142
  %144 = sext i32 %143 to i64
  %145 = getelementptr inbounds ptr, ptr %140, i64 %144
  store ptr %139, ptr %145, align 8
  br label %146

146:                                              ; preds = %136
  %147 = load i32, ptr %5, align 4
  %148 = add nsw i32 %147, 1
  store i32 %148, ptr %5, align 4
  br label %132, !llvm.loop !11

149:                                              ; preds = %132
  br label %150

150:                                              ; preds = %149
  %151 = load i32, ptr %4, align 4
  %152 = add nsw i32 %151, 1
  store i32 %152, ptr %4, align 4
  %153 = load ptr, ptr %8, align 8
  %154 = getelementptr inbounds %struct.jpeg_component_info, ptr %153, i32 1
  store ptr %154, ptr %8, align 8
  br label %21, !llvm.loop !12

155:                                              ; preds = %21
  ret void
}

; Function Attrs: nounwind uwtable
define internal void @start_pass_main(ptr noundef %0, i32 noundef %1) #0 {
  %3 = alloca ptr, align 8
  %4 = alloca i32, align 4
  %5 = alloca ptr, align 8
  store ptr %0, ptr %3, align 8
  store i32 %1, ptr %4, align 4
  %6 = load ptr, ptr %3, align 8
  %7 = getelementptr inbounds %struct.jpeg_decompress_struct, ptr %6, i32 0, i32 78
  %8 = load ptr, ptr %7, align 8
  store ptr %8, ptr %5, align 8
  %9 = load i32, ptr %4, align 4
  switch i32 %9, label %41 [
    i32 0, label %10
    i32 2, label %37
  ]

10:                                               ; preds = %2
  %11 = load ptr, ptr %3, align 8
  %12 = getelementptr inbounds %struct.jpeg_decompress_struct, ptr %11, i32 0, i32 85
  %13 = load ptr, ptr %12, align 8
  %14 = getelementptr inbounds %struct.jpeg_upsampler, ptr %13, i32 0, i32 2
  %15 = load i32, ptr %14, align 8
  %16 = icmp ne i32 %15, 0
  br i1 %16, label %17, label %28

17:                                               ; preds = %10
  %18 = load ptr, ptr %5, align 8
  %19 = getelementptr inbounds %struct.my_main_controller, ptr %18, i32 0, i32 0
  %20 = getelementptr inbounds %struct.jpeg_d_main_controller, ptr %19, i32 0, i32 1
  store ptr @process_data_context_main, ptr %20, align 8
  %21 = load ptr, ptr %3, align 8
  call void @make_funny_pointers(ptr noundef %21)
  %22 = load ptr, ptr %5, align 8
  %23 = getelementptr inbounds %struct.my_main_controller, ptr %22, i32 0, i32 5
  store i32 0, ptr %23, align 8
  %24 = load ptr, ptr %5, align 8
  %25 = getelementptr inbounds %struct.my_main_controller, ptr %24, i32 0, i32 6
  store i32 0, ptr %25, align 4
  %26 = load ptr, ptr %5, align 8
  %27 = getelementptr inbounds %struct.my_main_controller, ptr %26, i32 0, i32 8
  store i32 0, ptr %27, align 4
  br label %32

28:                                               ; preds = %10
  %29 = load ptr, ptr %5, align 8
  %30 = getelementptr inbounds %struct.my_main_controller, ptr %29, i32 0, i32 0
  %31 = getelementptr inbounds %struct.jpeg_d_main_controller, ptr %30, i32 0, i32 1
  store ptr @process_data_simple_main, ptr %31, align 8
  br label %32

32:                                               ; preds = %28, %17
  %33 = load ptr, ptr %5, align 8
  %34 = getelementptr inbounds %struct.my_main_controller, ptr %33, i32 0, i32 2
  store i32 0, ptr %34, align 8
  %35 = load ptr, ptr %5, align 8
  %36 = getelementptr inbounds %struct.my_main_controller, ptr %35, i32 0, i32 3
  store i32 0, ptr %36, align 4
  br label %52

37:                                               ; preds = %2
  %38 = load ptr, ptr %5, align 8
  %39 = getelementptr inbounds %struct.my_main_controller, ptr %38, i32 0, i32 0
  %40 = getelementptr inbounds %struct.jpeg_d_main_controller, ptr %39, i32 0, i32 1
  store ptr @process_data_crank_post, ptr %40, align 8
  br label %52

41:                                               ; preds = %2
  %42 = load ptr, ptr %3, align 8
  %43 = getelementptr inbounds %struct.jpeg_decompress_struct, ptr %42, i32 0, i32 0
  %44 = load ptr, ptr %43, align 8
  %45 = getelementptr inbounds %struct.jpeg_error_mgr, ptr %44, i32 0, i32 5
  store i32 4, ptr %45, align 8
  %46 = load ptr, ptr %3, align 8
  %47 = getelementptr inbounds %struct.jpeg_decompress_struct, ptr %46, i32 0, i32 0
  %48 = load ptr, ptr %47, align 8
  %49 = getelementptr inbounds %struct.jpeg_error_mgr, ptr %48, i32 0, i32 0
  %50 = load ptr, ptr %49, align 8
  %51 = load ptr, ptr %3, align 8
  call void %50(ptr noundef %51)
  br label %52

52:                                               ; preds = %41, %37, %32
  ret void
}